; Function Attrs: nofree nounwind memory(read, inaccessiblemem: none) uwtable
define dso_local noundef zeroext i1 @psqlscan_var_is_current_source(ptr noundef readonly captures(none) %0, ptr noundef readonly captures(none) %1) local_unnamed_addr #4 {
  %3 = getelementptr inbounds nuw i8, ptr %0, i64 16
  %.010 = load ptr, ptr %3, align 8
  %.not11.not = icmp eq ptr %.010, null
  br i1 %.not11.not, label %._crit_edge, label %.lr.ph

.lr.ph:                                           ; preds = %2, %9
  %.012 = phi ptr [ %.0, %9 ], [ %.010, %2 ]
  %4 = getelementptr inbounds nuw i8, ptr %.012, i64 24
  %5 = load ptr, ptr %4, align 8
  %.not9 = icmp eq ptr %5, null
  br i1 %.not9, label %9, label %6

6:                                                ; preds = %.lr.ph
  %7 = tail call i32 @strcmp(ptr noundef nonnull dereferenceable(1) %5, ptr noundef nonnull dereferenceable(1) %1) #28
  %8 = icmp eq i32 %7, 0
  br i1 %8, label %._crit_edge, label %9

9:                                                ; preds = %.lr.ph, %6
  %10 = getelementptr inbounds nuw i8, ptr %.012, i64 32
  %.0 = load ptr, ptr %10, align 8
  %.not.not = icmp eq ptr %.0, null
  br i1 %.not.not, label %._crit_edge, label %.lr.ph, !llvm.loop !10

._crit_edge:                                      ; preds = %6, %9, %2
  %.not.lcssa = phi i1 [ false, %2 ], [ false, %9 ], [ true, %6 ]
  ret i1 %.not.lcssa
}